; Function Attrs: mustprogress uwtable
define hidden noundef zeroext i1 @_ZN6google8protobuf8internal27UnknownFieldSetFieldSkipper11SkipMessageEPNS0_2io16CodedInputStreamE(ptr noundef nonnull readonly align 8 captures(none) dereferenceable(16) %0, ptr noundef %1) unnamed_addr #3 align 2 {
  %3 = getelementptr inbounds nuw i8, ptr %0, i64 8
  %4 = load ptr, ptr %3, align 8, !tbaa !3
  %5 = getelementptr inbounds nuw i8, ptr %1, i64 8
  %6 = getelementptr inbounds nuw i8, ptr %1, i64 32
  br label %7

7:                                                ; preds = %22, %2
  %8 = load ptr, ptr %1, align 8, !tbaa !10
  %9 = load ptr, ptr %5, align 8, !tbaa !18
  %10 = icmp ult ptr %8, %9
  br i1 %10, label %11, label %17, !prof !19

11:                                               ; preds = %7
  %12 = load i8, ptr %8, align 1, !tbaa !20
  %13 = zext i8 %12 to i32
  %14 = icmp sgt i8 %12, -1
  br i1 %14, label %15, label %17

15:                                               ; preds = %11
  %16 = getelementptr inbounds nuw i8, ptr %8, i64 1
  store ptr %16, ptr %1, align 8, !tbaa !10
  br label %_ZN6google8protobuf2io16CodedInputStream16ReadTagNoLastTagEv.exit.i

17:                                               ; preds = %11, %7
  %.0.i.i = phi i32 [ %13, %11 ], [ 0, %7 ]
  %18 = tail call noundef i32 @_ZN6google8protobuf2io16CodedInputStream15ReadTagFallbackEj(ptr noundef nonnull align 8 dereferenceable(80) %1, i32 noundef %.0.i.i)
  br label %_ZN6google8protobuf2io16CodedInputStream16ReadTagNoLastTagEv.exit.i

_ZN6google8protobuf2io16CodedInputStream16ReadTagNoLastTagEv.exit.i: ; preds = %17, %15
  %.05.i.i = phi i32 [ %13, %15 ], [ %18, %17 ]
  store i32 %.05.i.i, ptr %6, align 8, !tbaa !24
  %19 = icmp eq i32 %.05.i.i, 0
  %20 = and i32 %.05.i.i, 7
  %21 = icmp eq i32 %20, 4
  %or.cond.i = or i1 %19, %21
  br i1 %or.cond.i, label %_ZN6google8protobuf8internal10WireFormat11SkipMessageEPNS0_2io16CodedInputStreamEPNS0_15UnknownFieldSetE.exit, label %22

22:                                               ; preds = %_ZN6google8protobuf2io16CodedInputStream16ReadTagNoLastTagEv.exit.i
  %23 = tail call noundef zeroext i1 @_ZN6google8protobuf8internal10WireFormat9SkipFieldEPNS0_2io16CodedInputStreamEjPNS0_15UnknownFieldSetE(ptr noundef nonnull %1, i32 noundef %.05.i.i, ptr noundef %4)
  br i1 %23, label %7, label %_ZN6google8protobuf8internal10WireFormat11SkipMessageEPNS0_2io16CodedInputStreamEPNS0_15UnknownFieldSetE.exit

_ZN6google8protobuf8internal10WireFormat11SkipMessageEPNS0_2io16CodedInputStreamEPNS0_15UnknownFieldSetE.exit: ; preds = %_ZN6google8protobuf2io16CodedInputStream16ReadTagNoLastTagEv.exit.i, %22
  ret i1 %or.cond.i
}